; ModuleID = '7/1226.c'
source_filename = "7/1226.c"
target datalayout = "e-m:e-p270:32:32-p271:32:32-p272:64:64-i64:64-f80:128-n8:16:32:64-S128"
target triple = "x86_64-pc-linux-gnu"

@.str = private unnamed_addr constant [7 x i8] c"%s%s%s\00", align 1
@.str.1 = private unnamed_addr constant [4 x i8] c"%s\0A\00", align 1

; Function Attrs: noinline nounwind uwtable
define dso_local i32 @main() #0 {
  %1 = alloca i32, align 4
  %2 = alloca [300 x i8], align 16
  %3 = alloca [300 x i8], align 16
  %4 = alloca [300 x i8], align 16
  %5 = alloca i8*, align 8
  %6 = alloca i8, align 1
  store i32 0, i32* %1, align 4
  %7 = getelementptr inbounds [300 x i8], [300 x i8]* %2, i64 0, i64 0
  %8 = getelementptr inbounds [300 x i8], [300 x i8]* %3, i64 0, i64 0
  %9 = getelementptr inbounds [300 x i8], [300 x i8]* %4, i64 0, i64 0
  %10 = call i32 (i8*, ...) @__isoc99_scanf(i8* getelementptr inbounds ([7 x i8], [7 x i8]* @.str, i64 0, i64 0), i8* %7, i8* %8, i8* %9)
  %11 = getelementptr inbounds [300 x i8], [300 x i8]* %2, i64 0, i64 0
  %12 = getelementptr inbounds [300 x i8], [300 x i8]* %3, i64 0, i64 0
  %13 = call i8* @strstr(i8* %11, i8* %12) #4
  store i8* %13, i8** %5, align 8
  %14 = load i8*, i8** %5, align 8
  %15 = icmp ne i8* %14, null
  br i1 %15, label %16, label %30

16:                                               ; preds = %0
  %17 = load i8*, i8** %5, align 8
  %18 = getelementptr inbounds [300 x i8], [300 x i8]* %3, i64 0, i64 0
  %19 = call i64 @strlen(i8* %18) #4
  %20 = getelementptr inbounds i8, i8* %17, i64 %19
  %21 = load i8, i8* %20, align 1
  store i8 %21, i8* %6, align 1
  %22 = load i8*, i8** %5, align 8
  %23 = getelementptr inbounds [300 x i8], [300 x i8]* %4, i64 0, i64 0
  %24 = call i8* @strcpy(i8* %22, i8* %23) #5
  %25 = load i8, i8* %6, align 1
  %26 = load i8*, i8** %5, align 8
  %27 = getelementptr inbounds [300 x i8], [300 x i8]* %3, i64 0, i64 0
  %28 = call i64 @strlen(i8* %27) #4
  %29 = getelementptr inbounds i8, i8* %26, i64 %28
  store i8 %25, i8* %29, align 1
  br label %30

30:                                               ; preds = %16, %0
  %31 = getelementptr inbounds [300 x i8], [300 x i8]* %2, i64 0, i64 0
  %32 = call i32 (i8*, ...) @printf(i8* getelementptr inbounds ([4 x i8], [4 x i8]* @.str.1, i64 0, i64 0), i8* %31)
  ret i32 0
}

declare dso_local i32 @__isoc99_scanf(i8*, ...) #1

; Function Attrs: nounwind readonly
declare dso_local i8* @strstr(i8*, i8*) #2

; Function Attrs: nounwind readonly
declare dso_local i64 @strlen(i8*) #2

; Function Attrs: nounwind
declare dso_local i8* @strcpy(i8*, i8*) #3

declare dso_local i32 @printf(i8*, ...) #1


!llvm.module.flags = !{!0}
!llvm.ident = !{!1}

!0 = !{i32 1, !"wchar_size", i32 4}
!1 = !{!"clang version 10.0.0-4ubuntu1 "}
