; ModuleID = 'source-C-CXX/6/1226.c'
source_filename = "source-C-CXX/6/1226.c"
target datalayout = "e-m:e-p270:32:32-p271:32:32-p272:64:64-i64:64-f80:128-n8:16:32:64-S128"
target triple = "x86_64-pc-linux-gnu"

@.str = private unnamed_addr constant [7 x i8] c"%s%s%s\00", align 1

; Function Attrs: nofree nounwind sspstrong uwtable
define dso_local i32 @main() local_unnamed_addr #0 {
  %1 = alloca [300 x i8], align 16
  %2 = alloca [300 x i8], align 16
  %3 = alloca [300 x i8], align 16
  %4 = getelementptr inbounds [300 x i8], [300 x i8]* %1, i64 0, i64 0
  call void @llvm.lifetime.start.p0i8(i64 300, i8* nonnull %4) #6
  %5 = getelementptr inbounds [300 x i8], [300 x i8]* %2, i64 0, i64 0
  call void @llvm.lifetime.start.p0i8(i64 300, i8* nonnull %5) #6
  %6 = getelementptr inbounds [300 x i8], [300 x i8]* %3, i64 0, i64 0
  call void @llvm.lifetime.start.p0i8(i64 300, i8* nonnull %6) #6
  %7 = call i32 (i8*, ...) @__isoc99_scanf(i8* getelementptr inbounds ([7 x i8], [7 x i8]* @.str, i64 0, i64 0), i8* nonnull %4, i8* nonnull %5, i8* nonnull %6)
  %8 = call i8* @strstr(i8* noundef nonnull %4, i8* noundef nonnull %5) #7
  %9 = icmp eq i8* %8, null
  br i1 %9, label %17, label %10

10:                                               ; preds = %0
  %11 = call i64 @strlen(i8* noundef nonnull %5) #7
  %12 = getelementptr inbounds i8, i8* %8, i64 %11
  %13 = load i8, i8* %12, align 1, !tbaa !5
  %14 = call i8* @strcpy(i8* noundef nonnull %8, i8* noundef nonnull %6) #6
  %15 = call i64 @strlen(i8* noundef nonnull %5) #7
  %16 = getelementptr inbounds i8, i8* %8, i64 %15
  store i8 %13, i8* %16, align 1, !tbaa !5
  br label %17

17:                                               ; preds = %10, %0
  %18 = call i32 @puts(i8* nonnull %4)
  call void @llvm.lifetime.end.p0i8(i64 300, i8* nonnull %6) #6
  call void @llvm.lifetime.end.p0i8(i64 300, i8* nonnull %5) #6
  call void @llvm.lifetime.end.p0i8(i64 300, i8* nonnull %4) #6
  ret i32 0
}

; Function Attrs: argmemonly mustprogress nofree nosync nounwind willreturn
declare void @llvm.lifetime.start.p0i8(i64 immarg, i8* nocapture) #1

; Function Attrs: nofree nounwind
declare noundef i32 @__isoc99_scanf(i8* nocapture noundef readonly, ...) local_unnamed_addr #2

; Function Attrs: argmemonly mustprogress nofree nounwind readonly willreturn
declare i8* @strstr(i8*, i8* nocapture) local_unnamed_addr #3

; Function Attrs: argmemonly mustprogress nofree nounwind readonly willreturn
declare i64 @strlen(i8* nocapture) local_unnamed_addr #3

; Function Attrs: argmemonly mustprogress nofree nounwind willreturn
declare i8* @strcpy(i8* noalias returned writeonly, i8* noalias nocapture readonly) local_unnamed_addr #4

; Function Attrs: argmemonly mustprogress nofree nosync nounwind willreturn
declare void @llvm.lifetime.end.p0i8(i64 immarg, i8* nocapture) #1

; Function Attrs: nofree nounwind
declare noundef i32 @puts(i8* nocapture noundef readonly) local_unnamed_addr #5


!llvm.module.flags = !{!0, !1, !2, !3}
!llvm.ident = !{!4}

!0 = !{i32 1, !"wchar_size", i32 4}
!1 = !{i32 7, !"PIC Level", i32 2}
!2 = !{i32 7, !"PIE Level", i32 2}
!3 = !{i32 7, !"uwtable", i32 1}
!4 = !{!"clang version 13.0.0"}
!5 = !{!6, !6, i64 0}
!6 = !{!"omnipotent char", !7, i64 0}
!7 = !{!"Simple C/C++ TBAA"}
